; Function Attrs: nounwind uwtable
define noalias ptr @BIO_ADDR_new() local_unnamed_addr #0 {
  %1 = tail call noalias ptr @CRYPTO_zalloc(i64 noundef 112, ptr noundef nonnull @.str, i32 noundef 54) #15
  %2 = icmp eq ptr %1, null
  br i1 %2, label %4, label %3

3:                                                ; preds = %0
  store i16 0, ptr %1, align 4, !tbaa !3
  br label %4

4:                                                ; preds = %0, %3
  ret ptr %1
}